target datalayout = "e-m:e-p270:32:32-p271:32:32-p272:64:64-i64:64-i128:128-f80:128-n8:16:32:64-S128"
target triple = "x86_64-pc-linux-gnu"

@.str.12 = private unnamed_addr constant [8 x i8] c"require\00", align 1
@.str.15 = private unnamed_addr constant [5 x i8] c"jit.\00", align 1
@.str.16 = private unnamed_addr constant [8 x i8] c"module \00", align 1
@.str.17 = private unnamed_addr constant [6 x i8] c"start\00", align 1
@.str.18 = private unnamed_addr constant [54 x i8] c"unknown luaJIT command or jit.* modules not installed\00", align 1
@.str.36 = private unnamed_addr constant [31 x i8] c"(error object is not a string)\00", align 1

; Function Attrs: nounwind uwtable
define internal i32 @report(ptr noundef %0, i32 noundef %1) #0 {
  %3 = alloca ptr, align 8
  %4 = alloca i32, align 4
  %5 = alloca ptr, align 8
  store ptr %0, ptr %3, align 8, !tbaa !14
  store i32 %1, ptr %4, align 4, !tbaa !4
  %6 = load i32, ptr %4, align 4, !tbaa !4
  %7 = icmp ne i32 %6, 0
  br i1 %7, label %8, label %21

8:                                                ; preds = %2
  %9 = load ptr, ptr %3, align 8, !tbaa !14
  %10 = call i32 @lua_type(ptr noundef %9, i32 noundef -1)
  %11 = icmp eq i32 %10, 0
  br i1 %11, label %21, label %12

12:                                               ; preds = %8
  call void @llvm.lifetime.start.p0(i64 8, ptr %5) #5
  %13 = load ptr, ptr %3, align 8, !tbaa !14
  %14 = call ptr @lua_tolstring(ptr noundef %13, i32 noundef -1, ptr noundef null)
  store ptr %14, ptr %5, align 8, !tbaa !11
  %15 = load ptr, ptr %5, align 8, !tbaa !11
  %16 = icmp eq ptr %15, null
  br i1 %16, label %17, label %18

17:                                               ; preds = %12
  store ptr @.str.36, ptr %5, align 8, !tbaa !11
  br label %18

18:                                               ; preds = %17, %12
  %19 = load ptr, ptr %5, align 8, !tbaa !11
  call void @l_message(ptr noundef %19)
  %20 = load ptr, ptr %3, align 8, !tbaa !14
  call void @lua_settop(ptr noundef %20, i32 noundef -2)
  call void @llvm.lifetime.end.p0(i64 8, ptr %5) #5
  br label %21

21:                                               ; preds = %18, %8, %2
  %22 = load i32, ptr %4, align 4, !tbaa !4
  ret i32 %22
}

; Function Attrs: nounwind uwtable
define internal i32 @loadjitmodule(ptr noundef %0) #0 {
  %2 = alloca i32, align 4
  %3 = alloca ptr, align 8
  %4 = alloca ptr, align 8
  %5 = alloca i32, align 4
  store ptr %0, ptr %3, align 8, !tbaa !14
  %6 = load ptr, ptr %3, align 8, !tbaa !14
  call void @lua_getfield(ptr noundef %6, i32 noundef -10002, ptr noundef @.str.12)
  %7 = load ptr, ptr %3, align 8, !tbaa !14
  call void @lua_pushlstring(ptr noundef %7, ptr noundef @.str.15, i64 noundef 4)
  %8 = load ptr, ptr %3, align 8, !tbaa !14
  call void @lua_pushvalue(ptr noundef %8, i32 noundef -3)
  %9 = load ptr, ptr %3, align 8, !tbaa !14
  call void @lua_concat(ptr noundef %9, i32 noundef 2)
  %10 = load ptr, ptr %3, align 8, !tbaa !14
  %11 = call i32 @lua_pcall(ptr noundef %10, i32 noundef 1, i32 noundef 1, i32 noundef 0)
  %12 = icmp ne i32 %11, 0
  br i1 %12, label %13, label %28

13:                                               ; preds = %1
  call void @llvm.lifetime.start.p0(i64 8, ptr %4) #5
  %14 = load ptr, ptr %3, align 8, !tbaa !14
  %15 = call ptr @lua_tolstring(ptr noundef %14, i32 noundef -1, ptr noundef null)
  store ptr %15, ptr %4, align 8, !tbaa !11
  %16 = load ptr, ptr %4, align 8, !tbaa !11
  %17 = icmp ne ptr %16, null
  br i1 %17, label %18, label %23

18:                                               ; preds = %13
  %19 = load ptr, ptr %4, align 8, !tbaa !11
  %20 = call i32 @strncmp(ptr noundef %19, ptr noundef @.str.16, i64 noundef 7) #6
  %21 = icmp ne i32 %20, 0
  br i1 %21, label %23, label %22

22:                                               ; preds = %18
  store i32 2, ptr %5, align 4
  br label %26

23:                                               ; preds = %18, %13
  %24 = load ptr, ptr %3, align 8, !tbaa !14
  %25 = call i32 @report(ptr noundef %24, i32 noundef 1)
  store i32 %25, ptr %2, align 4
  store i32 1, ptr %5, align 4
  br label %26

26:                                               ; preds = %22, %23
  call void @llvm.lifetime.end.p0(i64 8, ptr %4) #5
  %27 = load i32, ptr %5, align 4
  switch i32 %27, label %39 [
    i32 1, label %37
    i32 2, label %34
  ]

28:                                               ; preds = %1
  %29 = load ptr, ptr %3, align 8, !tbaa !14
  call void @lua_getfield(ptr noundef %29, i32 noundef -1, ptr noundef @.str.17)
  %30 = load ptr, ptr %3, align 8, !tbaa !14
  %31 = call i32 @lua_type(ptr noundef %30, i32 noundef -1)
  %32 = icmp eq i32 %31, 0
  br i1 %32, label %33, label %35

33:                                               ; preds = %28
  br label %34

34:                                               ; preds = %33, %26
  call void @l_message(ptr noundef @.str.18)
  store i32 1, ptr %2, align 4
  br label %37

35:                                               ; preds = %28
  %36 = load ptr, ptr %3, align 8, !tbaa !14
  call void @lua_remove(ptr noundef %36, i32 noundef -2)
  store i32 0, ptr %2, align 4
  br label %37

37:                                               ; preds = %35, %34, %26
  %38 = load i32, ptr %2, align 4
  ret i32 %38

39:                                               ; preds = %26
  unreachable
}