; Function Attrs: nounwind uwtable
define internal fastcc range(i32 0, 2) i32 @loadjitmodule(ptr noundef %0) unnamed_addr #0 {
  tail call void @lua_getfield(ptr noundef %0, i32 noundef -10002, ptr noundef nonnull @.str.12) #9
  tail call void @lua_pushlstring(ptr noundef %0, ptr noundef nonnull @.str.15, i64 noundef 4) #9
  tail call void @lua_pushvalue(ptr noundef %0, i32 noundef -3) #9
  tail call void @lua_concat(ptr noundef %0, i32 noundef 2) #9
  %2 = tail call i32 @lua_pcall(ptr noundef %0, i32 noundef 1, i32 noundef 1, i32 noundef 0) #9
  %.not = icmp eq i32 %2, 0
  br i1 %.not, label %13, label %3

3:                                                ; preds = %1
  %4 = tail call ptr @lua_tolstring(ptr noundef %0, i32 noundef -1, ptr noundef null) #9
  %.not15 = icmp eq ptr %4, null
  br i1 %.not15, label %7, label %5

5:                                                ; preds = %3
  %6 = tail call i32 @strncmp(ptr noundef nonnull dereferenceable(1) %4, ptr noundef nonnull dereferenceable(8) @.str.16, i64 noundef 7) #11
  %.not16 = icmp eq i32 %6, 0
  br i1 %.not16, label %report.exit, label %7

7:                                                ; preds = %5, %3
  %8 = tail call i32 @lua_type(ptr noundef %0, i32 noundef -1) #9
  %9 = icmp eq i32 %8, 0
  br i1 %9, label %report.exit.thread, label %10

10:                                               ; preds = %7
  %11 = tail call ptr @lua_tolstring(ptr noundef %0, i32 noundef -1, ptr noundef null) #9
  %12 = icmp eq ptr %11, null
  %spec.store.select.i = select i1 %12, ptr @.str.36, ptr %11
  tail call fastcc void @l_message(ptr noundef nonnull %spec.store.select.i)
  tail call void @lua_settop(ptr noundef %0, i32 noundef -2) #9
  br label %report.exit.thread

13:                                               ; preds = %1
  tail call void @lua_getfield(ptr noundef %0, i32 noundef -1, ptr noundef nonnull @.str.17) #9
  %14 = tail call i32 @lua_type(ptr noundef %0, i32 noundef -1) #9
  %15 = icmp eq i32 %14, 0
  br i1 %15, label %report.exit, label %16

report.exit:                                      ; preds = %5, %13
  tail call fastcc void @l_message(ptr noundef nonnull @.str.18)
  br label %report.exit.thread

16:                                               ; preds = %13
  tail call void @lua_remove(ptr noundef %0, i32 noundef -2) #9
  br label %report.exit.thread

report.exit.thread:                               ; preds = %10, %7, %16, %report.exit
  %.1 = phi i32 [ 1, %report.exit ], [ 0, %16 ], [ 1, %7 ], [ 1, %10 ]
  ret i32 %.1
}